; Function Attrs: mustprogress uwtable
define hidden noundef zeroext i1 @_ZN18OpenImageIO_v2_6_09NullInput4openERKNSt7__cxx1112basic_stringIcSt11char_traitsIcESaIcEEERNS_9ImageSpecE(ptr noundef nonnull align 8 dereferenceable(416) %this, ptr noundef nonnull align 8 dereferenceable(32) %name, ptr noundef nonnull align 8 dereferenceable(160) %newspec) unnamed_addr #4 align 2 personality ptr @__gxx_personality_v0 {
entry:
  %config = alloca %"class.OpenImageIO_v2_6_0::ImageSpec", align 8
  %agg.tmp = alloca %"struct.OpenImageIO_v2_6_0::TypeDesc", align 4
  store <4 x i8> <i8 0, i8 1, i8 0, i8 0>, ptr %agg.tmp, align 4
  %arraylen4.i = getelementptr inbounds i8, ptr %agg.tmp, i64 4
  store i32 0, ptr %arraylen4.i, align 4
  call void @_ZN18OpenImageIO_v2_6_09ImageSpecC1ENS_8TypeDescE(ptr noundef nonnull align 8 dereferenceable(160) %config, ptr noundef nonnull %agg.tmp) #18
  %call = invoke noundef zeroext i1 @_ZN18OpenImageIO_v2_6_09NullInput4openERKNSt7__cxx1112basic_stringIcSt11char_traitsIcESaIcEEERNS_9ImageSpecERKS9_(ptr noundef nonnull align 8 dereferenceable(416) %this, ptr noundef nonnull align 8 dereferenceable(32) %name, ptr noundef nonnull align 8 dereferenceable(160) %newspec, ptr noundef nonnull align 8 dereferenceable(160) %config)
          to label %invoke.cont unwind label %lpad

invoke.cont:                                      ; preds = %entry
  %extra_attribs.i = getelementptr inbounds i8, ptr %config, i64 136
  %0 = load ptr, ptr %extra_attribs.i, align 8
  %_M_finish.i.i.i = getelementptr inbounds i8, ptr %config, i64 144
  %1 = load ptr, ptr %_M_finish.i.i.i, align 8
  %cmp.not3.i.i.i.i.i.i = icmp eq ptr %0, %1
  br i1 %cmp.not3.i.i.i.i.i.i, label %invoke.cont.i.i.i, label %for.body.i.i.i.i.i.i

for.body.i.i.i.i.i.i:                             ; preds = %invoke.cont, %for.body.i.i.i.i.i.i
  %__first.addr.04.i.i.i.i.i.i = phi ptr [ %incdec.ptr.i.i.i.i.i.i, %for.body.i.i.i.i.i.i ], [ %0, %invoke.cont ]
  call void @_ZN18OpenImageIO_v2_6_010ParamValue11clear_valueEv(ptr noundef nonnull align 8 dereferenceable(39) %__first.addr.04.i.i.i.i.i.i) #18
  %incdec.ptr.i.i.i.i.i.i = getelementptr inbounds i8, ptr %__first.addr.04.i.i.i.i.i.i, i64 40
  %cmp.not.i.i.i.i.i.i = icmp eq ptr %incdec.ptr.i.i.i.i.i.i, %1
  br i1 %cmp.not.i.i.i.i.i.i, label %invoke.contthread-pre-split.i.i.i, label %for.body.i.i.i.i.i.i, !llvm.loop !4

invoke.contthread-pre-split.i.i.i:                ; preds = %for.body.i.i.i.i.i.i
  %.pr.i.i.i = load ptr, ptr %extra_attribs.i, align 8
  br label %invoke.cont.i.i.i

invoke.cont.i.i.i:                                ; preds = %invoke.contthread-pre-split.i.i.i, %invoke.cont
  %2 = phi ptr [ %.pr.i.i.i, %invoke.contthread-pre-split.i.i.i ], [ %0, %invoke.cont ]
  %tobool.not.i.i.i.i.i = icmp eq ptr %2, null
  br i1 %tobool.not.i.i.i.i.i, label %_ZN18OpenImageIO_v2_6_014ParamValueListD2Ev.exit.i, label %if.then.i.i.i.i.i

if.then.i.i.i.i.i:                                ; preds = %invoke.cont.i.i.i
  call void @_ZdlPv(ptr noundef nonnull %2) #20
  br label %_ZN18OpenImageIO_v2_6_014ParamValueListD2Ev.exit.i

_ZN18OpenImageIO_v2_6_014ParamValueListD2Ev.exit.i: ; preds = %if.then.i.i.i.i.i, %invoke.cont.i.i.i
  %channelnames.i = getelementptr inbounds i8, ptr %config, i64 96
  %3 = load ptr, ptr %channelnames.i, align 8
  %_M_finish.i.i = getelementptr inbounds i8, ptr %config, i64 104
  %4 = load ptr, ptr %_M_finish.i.i, align 8
  %cmp.not3.i.i.i.i.i = icmp eq ptr %3, %4
  br i1 %cmp.not3.i.i.i.i.i, label %invoke.cont.i.i, label %for.body.i.i.i.i.i

for.body.i.i.i.i.i:                               ; preds = %_ZN18OpenImageIO_v2_6_014ParamValueListD2Ev.exit.i, %for.body.i.i.i.i.i
  %__first.addr.04.i.i.i.i.i = phi ptr [ %incdec.ptr.i.i.i.i.i, %for.body.i.i.i.i.i ], [ %3, %_ZN18OpenImageIO_v2_6_014ParamValueListD2Ev.exit.i ]
  call void @_ZNSt7__cxx1112basic_stringIcSt11char_traitsIcESaIcEED1Ev(ptr noundef nonnull align 8 dereferenceable(32) %__first.addr.04.i.i.i.i.i) #18
  %incdec.ptr.i.i.i.i.i = getelementptr inbounds i8, ptr %__first.addr.04.i.i.i.i.i, i64 32
  %cmp.not.i.i.i.i.i = icmp eq ptr %incdec.ptr.i.i.i.i.i, %4
  br i1 %cmp.not.i.i.i.i.i, label %invoke.contthread-pre-split.i.i, label %for.body.i.i.i.i.i, !llvm.loop !6

invoke.contthread-pre-split.i.i:                  ; preds = %for.body.i.i.i.i.i
  %.pr.i.i = load ptr, ptr %channelnames.i, align 8
  br label %invoke.cont.i.i

invoke.cont.i.i:                                  ; preds = %invoke.contthread-pre-split.i.i, %_ZN18OpenImageIO_v2_6_014ParamValueListD2Ev.exit.i
  %5 = phi ptr [ %.pr.i.i, %invoke.contthread-pre-split.i.i ], [ %3, %_ZN18OpenImageIO_v2_6_014ParamValueListD2Ev.exit.i ]
  %tobool.not.i.i.i.i = icmp eq ptr %5, null
  br i1 %tobool.not.i.i.i.i, label %_ZNSt6vectorINSt7__cxx1112basic_stringIcSt11char_traitsIcESaIcEEESaIS5_EED2Ev.exit.i, label %if.then.i.i.i.i

if.then.i.i.i.i:                                  ; preds = %invoke.cont.i.i
  call void @_ZdlPv(ptr noundef nonnull %5) #20
  br label %_ZNSt6vectorINSt7__cxx1112basic_stringIcSt11char_traitsIcESaIcEEESaIS5_EED2Ev.exit.i

_ZNSt6vectorINSt7__cxx1112basic_stringIcSt11char_traitsIcESaIcEEESaIS5_EED2Ev.exit.i: ; preds = %if.then.i.i.i.i, %invoke.cont.i.i
  %channelformats.i = getelementptr inbounds i8, ptr %config, i64 72
  %6 = load ptr, ptr %channelformats.i, align 8
  %tobool.not.i.i.i2.i = icmp eq ptr %6, null
  br i1 %tobool.not.i.i.i2.i, label %_ZN18OpenImageIO_v2_6_09ImageSpecD2Ev.exit, label %if.then.i.i.i3.i

if.then.i.i.i3.i:                                 ; preds = %_ZNSt6vectorINSt7__cxx1112basic_stringIcSt11char_traitsIcESaIcEEESaIS5_EED2Ev.exit.i
  call void @_ZdlPv(ptr noundef nonnull %6) #20
  br label %_ZN18OpenImageIO_v2_6_09ImageSpecD2Ev.exit

_ZN18OpenImageIO_v2_6_09ImageSpecD2Ev.exit:       ; preds = %_ZNSt6vectorINSt7__cxx1112basic_stringIcSt11char_traitsIcESaIcEEESaIS5_EED2Ev.exit.i, %if.then.i.i.i3.i
  ret i1 %call

lpad:                                             ; preds = %entry
  %7 = landingpad { ptr, i32 }
          cleanup
  call void @_ZN18OpenImageIO_v2_6_09ImageSpecD2Ev(ptr noundef nonnull align 8 dereferenceable(160) %config) #18
  resume { ptr, i32 } %7
}